target datalayout = "e-m:e-p270:32:32-p271:32:32-p272:64:64-i64:64-i128:128-f80:128-n8:16:32:64-S128"
target triple = "x86_64-pc-linux-gnu"

%struct.option = type { i32, i32, ptr, ptr, ptr, ptr, i32, ptr, i64, ptr, i64, ptr }
%struct.hashmap = type { ptr, ptr, ptr, i32, i32, i32, i32, i8 }
%struct.pattern_list = type { i32, i32, ptr, ptr, i32, i32, %struct.hashmap, %struct.hashmap }
%struct.hashmap_iter = type { ptr, ptr, i32 }
%struct.string_list = type { ptr, i64, i64, i8, ptr }
%struct.pattern_entry = type { %struct.hashmap_entry, ptr, i64 }
%struct.hashmap_entry = type { ptr, i32 }
%struct.string_list_item = type { ptr, ptr }
%struct.path_pattern = type { ptr, i32, i32, ptr, i32, i32, i32, [0 x i8] }

@sparse_checkout_list.builtin_sparse_checkout_list_options = internal global [1 x %struct.option] zeroinitializer, align 16
@core_apply_sparse_checkout = external global i32, align 4
@.str.7 = private unnamed_addr constant [28 x i8] c"this worktree is not sparse\00", align 1
@builtin_sparse_checkout_list_usage = internal constant [2 x ptr] [ptr @.str.11, ptr null], align 16
@core_sparse_checkout_cone = external global i32, align 4
@.str.8 = private unnamed_addr constant [1 x i8] zeroinitializer, align 1
@.str.9 = private unnamed_addr constant [65 x i8] c"this worktree is not sparse (sparse-checkout file may not exist)\00", align 1
@stdout = external global ptr, align 8
@.str.10 = private unnamed_addr constant [2 x i8] c"\0A\00", align 1
@.str.12 = private unnamed_addr constant [2 x i8] c"!\00", align 1
@.str.13 = private unnamed_addr constant [3 x i8] c"%s\00", align 1
@.str.14 = private unnamed_addr constant [2 x i8] c"/\00", align 1

; Function Attrs: nounwind uwtable
define internal void @write_patterns_to_file(ptr noundef %0, ptr noundef %1) #0 {
  %3 = alloca ptr, align 8
  %4 = alloca ptr, align 8
  %5 = alloca i32, align 4
  %6 = alloca ptr, align 8
  store ptr %0, ptr %3, align 8, !tbaa !65
  store ptr %1, ptr %4, align 8, !tbaa !96
  call void @llvm.lifetime.start.p0(i64 4, ptr %5) #9
  store i32 0, ptr %5, align 4, !tbaa !4
  br label %7

7:                                                ; preds = %46, %2
  %8 = load i32, ptr %5, align 4, !tbaa !4
  %9 = load ptr, ptr %4, align 8, !tbaa !96
  %10 = getelementptr inbounds nuw %struct.pattern_list, ptr %9, i32 0, i32 0
  %11 = load i32, ptr %10, align 8, !tbaa !98
  %12 = icmp slt i32 %8, %11
  br i1 %12, label %13, label %49

13:                                               ; preds = %7
  call void @llvm.lifetime.start.p0(i64 8, ptr %6) #9
  %14 = load ptr, ptr %4, align 8, !tbaa !96
  %15 = getelementptr inbounds nuw %struct.pattern_list, ptr %14, i32 0, i32 3
  %16 = load ptr, ptr %15, align 8, !tbaa !99
  %17 = load i32, ptr %5, align 4, !tbaa !4
  %18 = sext i32 %17 to i64
  %19 = getelementptr inbounds ptr, ptr %16, i64 %18
  %20 = load ptr, ptr %19, align 8, !tbaa !100
  store ptr %20, ptr %6, align 8, !tbaa !100
  %21 = load ptr, ptr %6, align 8, !tbaa !100
  %22 = getelementptr inbounds nuw %struct.path_pattern, ptr %21, i32 0, i32 5
  %23 = load i32, ptr %22, align 4, !tbaa !4
  %24 = and i32 %23, 16
  %25 = icmp ne i32 %24, 0
  br i1 %25, label %26, label %29

26:                                               ; preds = %13
  %27 = load ptr, ptr %3, align 8, !tbaa !65
  %28 = call i32 (ptr, ptr, ...) @fprintf(ptr noundef %27, ptr noundef @.str.12) #9
  br label %29

29:                                               ; preds = %26, %13
  %30 = load ptr, ptr %3, align 8, !tbaa !65
  %31 = load ptr, ptr %6, align 8, !tbaa !100
  %32 = getelementptr inbounds nuw %struct.path_pattern, ptr %31, i32 0, i32 7
  %33 = getelementptr inbounds [0 x i8], ptr %32, i64 0, i64 0
  %34 = call i32 (ptr, ptr, ...) @fprintf(ptr noundef %30, ptr noundef @.str.13, ptr noundef %33) #9
  %35 = load ptr, ptr %6, align 8, !tbaa !100
  %36 = getelementptr inbounds nuw %struct.path_pattern, ptr %35, i32 0, i32 5
  %37 = load i32, ptr %36, align 4, !tbaa !4
  %38 = and i32 %37, 8
  %39 = icmp ne i32 %38, 0
  br i1 %39, label %40, label %43

40:                                               ; preds = %29
  %41 = load ptr, ptr %3, align 8, !tbaa !65
  %42 = call i32 (ptr, ptr, ...) @fprintf(ptr noundef %41, ptr noundef @.str.14) #9
  br label %43

43:                                               ; preds = %40, %29
  %44 = load ptr, ptr %3, align 8, !tbaa !65
  %45 = call i32 (ptr, ptr, ...) @fprintf(ptr noundef %44, ptr noundef @.str.10) #9
  call void @llvm.lifetime.end.p0(i64 8, ptr %6) #9
  br label %46

46:                                               ; preds = %43
  %47 = load i32, ptr %5, align 4, !tbaa !4
  %48 = add nsw i32 %47, 1
  store i32 %48, ptr %5, align 4, !tbaa !4
  br label %7, !llvm.loop !102

49:                                               ; preds = %7
  call void @llvm.lifetime.end.p0(i64 4, ptr %5) #9
  ret void
}

; Function Attrs: inlinehint nounwind uwtable
define internal ptr @container_of_or_null_offset(ptr noundef %0, i64 noundef %1) #4 {
  %3 = alloca ptr, align 8
  %4 = alloca i64, align 8
  store ptr %0, ptr %3, align 8, !tbaa !15
  store i64 %1, ptr %4, align 8, !tbaa !91
  %5 = load ptr, ptr %3, align 8, !tbaa !15
  %6 = icmp ne ptr %5, null
  br i1 %6, label %7, label %12

7:                                                ; preds = %2
  %8 = load ptr, ptr %3, align 8, !tbaa !15
  %9 = load i64, ptr %4, align 8, !tbaa !91
  %10 = sub i64 0, %9
  %11 = getelementptr inbounds i8, ptr %8, i64 %10
  br label %13

12:                                               ; preds = %2
  br label %13

13:                                               ; preds = %12, %7
  %14 = phi ptr [ %11, %7 ], [ null, %12 ]
  ret ptr %14
}

; Function Attrs: inlinehint nounwind uwtable
define internal ptr @hashmap_iter_first(ptr noundef %0, ptr noundef %1) #4 {
  %3 = alloca ptr, align 8
  %4 = alloca ptr, align 8
  store ptr %0, ptr %3, align 8, !tbaa !92
  store ptr %1, ptr %4, align 8, !tbaa !94
  %5 = load ptr, ptr %3, align 8, !tbaa !92
  %6 = load ptr, ptr %4, align 8, !tbaa !94
  call void @hashmap_iter_init(ptr noundef %5, ptr noundef %6)
  %7 = load ptr, ptr %4, align 8, !tbaa !94
  %8 = call ptr @hashmap_iter_next(ptr noundef %7)
  ret ptr %8
}

; Function Attrs: nounwind uwtable
define internal i32 @sparse_checkout_list(i32 noundef %0, ptr noundef %1, ptr noundef %2, ptr noundef %3) #0 {
  %5 = alloca i32, align 4
  %6 = alloca i32, align 4
  %7 = alloca ptr, align 8
  %8 = alloca ptr, align 8
  %9 = alloca ptr, align 8
  %10 = alloca %struct.pattern_list, align 8
  %11 = alloca ptr, align 8
  %12 = alloca i32, align 4
  %13 = alloca i32, align 4
  %14 = alloca i32, align 4
  %15 = alloca ptr, align 8
  %16 = alloca %struct.hashmap_iter, align 8
  %17 = alloca %struct.string_list, align 8
  store i32 %0, ptr %6, align 4, !tbaa !4
  store ptr %1, ptr %7, align 8, !tbaa !8
  store ptr %2, ptr %8, align 8, !tbaa !11
  store ptr %3, ptr %9, align 8, !tbaa !13
  call void @llvm.lifetime.start.p0(i64 128, ptr %10) #9
  call void @llvm.lifetime.start.p0(i64 8, ptr %11) #9
  call void @llvm.lifetime.start.p0(i64 4, ptr %12) #9
  call void @setup_work_tree()
  %18 = load i32, ptr @core_apply_sparse_checkout, align 4, !tbaa !4
  %19 = icmp ne i32 %18, 0
  br i1 %19, label %22, label %20

20:                                               ; preds = %4
  %21 = call ptr @_(ptr noundef @.str.7)
  call void (ptr, ...) @die(ptr noundef %21) #10
  unreachable

22:                                               ; preds = %4
  %23 = load i32, ptr %6, align 4, !tbaa !4
  %24 = load ptr, ptr %7, align 8, !tbaa !8
  %25 = load ptr, ptr %8, align 8, !tbaa !11
  %26 = call i32 @parse_options(i32 noundef %23, ptr noundef %24, ptr noundef %25, ptr noundef @sparse_checkout_list.builtin_sparse_checkout_list_options, ptr noundef @builtin_sparse_checkout_list_usage, i32 noundef 0)
  store i32 %26, ptr %6, align 4, !tbaa !4
  call void @llvm.memset.p0.i64(ptr align 8 %10, i8 0, i64 128, i1 false)
  %27 = load i32, ptr @core_sparse_checkout_cone, align 4, !tbaa !4
  %28 = getelementptr inbounds nuw %struct.pattern_list, ptr %10, i32 0, i32 4
  store i32 %27, ptr %28, align 8, !tbaa !48
  %29 = call ptr @get_sparse_checkout_filename()
  store ptr %29, ptr %11, align 8, !tbaa !11
  %30 = load ptr, ptr %11, align 8, !tbaa !11
  %31 = call i32 @add_patterns_from_file_to_list(ptr noundef %30, ptr noundef @.str.8, i32 noundef 0, ptr noundef %10, ptr noundef null, i32 noundef 0)
  store i32 %31, ptr %12, align 4, !tbaa !4
  %32 = load ptr, ptr %11, align 8, !tbaa !11
  call void @free(ptr noundef %32) #9
  %33 = load i32, ptr %12, align 4, !tbaa !4
  %34 = icmp slt i32 %33, 0
  br i1 %34, label %35, label %37

35:                                               ; preds = %22
  %36 = call ptr @_(ptr noundef @.str.9)
  call void (ptr, ...) @warning(ptr noundef %36)
  store i32 0, ptr %5, align 4
  store i32 1, ptr %13, align 4
  br label %83

37:                                               ; preds = %22
  %38 = getelementptr inbounds nuw %struct.pattern_list, ptr %10, i32 0, i32 4
  %39 = load i32, ptr %38, align 8, !tbaa !48
  %40 = icmp ne i32 %39, 0
  br i1 %40, label %41, label %80

41:                                               ; preds = %37
  call void @llvm.lifetime.start.p0(i64 4, ptr %14) #9
  call void @llvm.lifetime.start.p0(i64 8, ptr %15) #9
  call void @llvm.lifetime.start.p0(i64 24, ptr %16) #9
  call void @llvm.lifetime.start.p0(i64 40, ptr %17) #9
  call void @llvm.memset.p0.i64(ptr align 8 %17, i8 0, i64 40, i1 false)
  %42 = getelementptr inbounds { ptr, i64, i64, i8, [7 x i8], ptr }, ptr %17, i32 0, i32 3
  store i8 1, ptr %42, align 8
  store ptr null, ptr %15, align 8, !tbaa !51
  %43 = getelementptr inbounds nuw %struct.pattern_list, ptr %10, i32 0, i32 6
  %44 = call ptr @hashmap_iter_first(ptr noundef %43, ptr noundef %16)
  %45 = call ptr @container_of_or_null_offset(ptr noundef %44, i64 noundef 0)
  store ptr %45, ptr %15, align 8, !tbaa !51
  br label %46

46:                                               ; preds = %55, %41
  %47 = load ptr, ptr %15, align 8, !tbaa !51
  %48 = icmp ne ptr %47, null
  br i1 %48, label %49, label %58

49:                                               ; preds = %46
  %50 = load ptr, ptr %15, align 8, !tbaa !51
  %51 = getelementptr inbounds nuw %struct.pattern_entry, ptr %50, i32 0, i32 1
  %52 = load ptr, ptr %51, align 8, !tbaa !53
  %53 = getelementptr inbounds i8, ptr %52, i64 1
  %54 = call ptr @string_list_insert(ptr noundef %17, ptr noundef %53)
  br label %55

55:                                               ; preds = %49
  %56 = call ptr @hashmap_iter_next(ptr noundef %16)
  %57 = call ptr @container_of_or_null_offset(ptr noundef %56, i64 noundef 0)
  store ptr %57, ptr %15, align 8, !tbaa !51
  br label %46, !llvm.loop !57

58:                                               ; preds = %46
  call void @string_list_sort(ptr noundef %17)
  store i32 0, ptr %14, align 4, !tbaa !4
  br label %59

59:                                               ; preds = %76, %58
  %60 = load i32, ptr %14, align 4, !tbaa !4
  %61 = sext i32 %60 to i64
  %62 = getelementptr inbounds nuw %struct.string_list, ptr %17, i32 0, i32 1
  %63 = load i64, ptr %62, align 8, !tbaa !59
  %64 = icmp ult i64 %61, %63
  br i1 %64, label %65, label %79

65:                                               ; preds = %59
  %66 = getelementptr inbounds nuw %struct.string_list, ptr %17, i32 0, i32 0
  %67 = load ptr, ptr %66, align 8, !tbaa !62
  %68 = load i32, ptr %14, align 4, !tbaa !4
  %69 = sext i32 %68 to i64
  %70 = getelementptr inbounds %struct.string_list_item, ptr %67, i64 %69
  %71 = getelementptr inbounds nuw %struct.string_list_item, ptr %70, i32 0, i32 0
  %72 = load ptr, ptr %71, align 8, !tbaa !63
  %73 = load ptr, ptr @stdout, align 8, !tbaa !65
  %74 = call i64 @quote_c_style(ptr noundef %72, ptr noundef null, ptr noundef %73, i32 noundef 0)
  %75 = call i32 (ptr, ...) @printf(ptr noundef @.str.10)
  br label %76

76:                                               ; preds = %65
  %77 = load i32, ptr %14, align 4, !tbaa !4
  %78 = add nsw i32 %77, 1
  store i32 %78, ptr %14, align 4, !tbaa !4
  br label %59, !llvm.loop !67

79:                                               ; preds = %59
  call void @string_list_clear(ptr noundef %17, i32 noundef 0)
  call void @llvm.lifetime.end.p0(i64 40, ptr %17) #9
  call void @llvm.lifetime.end.p0(i64 24, ptr %16) #9
  call void @llvm.lifetime.end.p0(i64 8, ptr %15) #9
  call void @llvm.lifetime.end.p0(i64 4, ptr %14) #9
  br label %82

80:                                               ; preds = %37
  %81 = load ptr, ptr @stdout, align 8, !tbaa !65
  call void @write_patterns_to_file(ptr noundef %81, ptr noundef %10)
  br label %82

82:                                               ; preds = %80, %79
  call void @clear_pattern_list(ptr noundef %10)
  store i32 0, ptr %5, align 4
  store i32 1, ptr %13, align 4
  br label %83

83:                                               ; preds = %82, %35
  call void @llvm.lifetime.end.p0(i64 4, ptr %12) #9
  call void @llvm.lifetime.end.p0(i64 8, ptr %11) #9
  call void @llvm.lifetime.end.p0(i64 128, ptr %10) #9
  %84 = load i32, ptr %5, align 4
  ret i32 %84
}