; Function Attrs: nounwind uwtable
define internal noundef i32 @sparse_checkout_list(i32 noundef %0, ptr noundef %1, ptr noundef %2, ptr readnone captures(none) %3) #0 {
  %5 = alloca %struct.pattern_list, align 8
  %6 = alloca %struct.hashmap_iter, align 8
  %7 = alloca %struct.string_list, align 8
  call void @llvm.lifetime.start.p0(i64 128, ptr nonnull %5) #13
  tail call void @setup_work_tree() #13
  %8 = load i32, ptr @core_apply_sparse_checkout, align 4, !tbaa !37
  %.not = icmp eq i32 %8, 0
  br i1 %.not, label %9, label %11

9:                                                ; preds = %4
  %10 = tail call fastcc ptr @_(ptr noundef nonnull @.str.7)
  tail call void (ptr, ...) @die(ptr noundef %10) #14
  unreachable

11:                                               ; preds = %4
  %12 = tail call i32 @parse_options(i32 noundef %0, ptr noundef %1, ptr noundef %2, ptr noundef nonnull @sparse_checkout_list.builtin_sparse_checkout_list_options, ptr noundef nonnull @builtin_sparse_checkout_list_usage, i32 noundef 0) #13
  call void @llvm.memset.p0.i64(ptr noundef nonnull align 8 dereferenceable(128) %5, i8 0, i64 128, i1 false)
  %13 = load i32, ptr @core_sparse_checkout_cone, align 4, !tbaa !37
  %14 = getelementptr inbounds nuw i8, ptr %5, i64 24
  store i32 %13, ptr %14, align 8, !tbaa !38
  %15 = tail call ptr @get_sparse_checkout_filename() #13
  %16 = call i32 @add_patterns_from_file_to_list(ptr noundef %15, ptr noundef nonnull @.str.8, i32 noundef 0, ptr noundef nonnull %5, ptr noundef null, i32 noundef 0) #13
  call void @free(ptr noundef %15) #13
  %17 = icmp slt i32 %16, 0
  br i1 %17, label %18, label %22

18:                                               ; preds = %11
  %19 = load i32, ptr @git_gettext_enabled, align 4, !tbaa !37
  %.not4.i = icmp eq i32 %19, 0
  br i1 %.not4.i, label %_.exit, label %20

20:                                               ; preds = %18
  %21 = call ptr @dcgettext(ptr noundef null, ptr noundef nonnull @.str.9, i32 noundef 5) #13
  br label %_.exit

_.exit:                                           ; preds = %18, %20
  %.0.i = phi ptr [ %21, %20 ], [ @.str.9, %18 ]
  call void (ptr, ...) @warning(ptr noundef %.0.i) #13
  br label %64

22:                                               ; preds = %11
  %23 = load i32, ptr %14, align 8, !tbaa !38
  %.not14 = icmp eq i32 %23, 0
  br i1 %.not14, label %42, label %24

24:                                               ; preds = %22
  call void @llvm.lifetime.start.p0(i64 24, ptr nonnull %6) #13
  call void @llvm.lifetime.start.p0(i64 40, ptr nonnull %7) #13
  call void @llvm.memset.p0.i64(ptr noundef nonnull align 8 dereferenceable(40) %7, i8 0, i64 40, i1 false)
  %25 = getelementptr inbounds nuw i8, ptr %7, i64 24
  store i8 1, ptr %25, align 8
  %26 = getelementptr inbounds nuw i8, ptr %5, i64 32
  call void @hashmap_iter_init(ptr noundef nonnull %26, ptr noundef nonnull %6) #13
  %27 = call ptr @hashmap_iter_next(ptr noundef nonnull %6) #13
  %.not1516 = icmp eq ptr %27, null
  br i1 %.not1516, label %._crit_edge, label %.lr.ph

.lr.ph:                                           ; preds = %24, %.lr.ph
  %.017 = phi ptr [ %32, %.lr.ph ], [ %27, %24 ]
  %28 = getelementptr inbounds nuw i8, ptr %.017, i64 16
  %29 = load ptr, ptr %28, align 8, !tbaa !41
  %30 = getelementptr inbounds nuw i8, ptr %29, i64 1
  %31 = call ptr @string_list_insert(ptr noundef nonnull %7, ptr noundef nonnull %30) #13
  %32 = call ptr @hashmap_iter_next(ptr noundef nonnull %6) #13
  %.not15 = icmp eq ptr %32, null
  br i1 %.not15, label %._crit_edge, label %.lr.ph, !llvm.loop !45

._crit_edge:                                      ; preds = %.lr.ph, %24
  call void @string_list_sort(ptr noundef nonnull %7) #13
  %33 = getelementptr inbounds nuw i8, ptr %7, i64 8
  %34 = load i64, ptr %33, align 8, !tbaa !47
  %.not22 = icmp eq i64 %34, 0
  br i1 %.not22, label %._crit_edge21, label %.lr.ph20

.lr.ph20:                                         ; preds = %._crit_edge, %.lr.ph20
  %indvars.iv = phi i64 [ %indvars.iv.next, %.lr.ph20 ], [ 0, %._crit_edge ]
  %35 = load ptr, ptr %7, align 8, !tbaa !50
  %36 = getelementptr inbounds nuw %struct.string_list_item, ptr %35, i64 %indvars.iv
  %37 = load ptr, ptr %36, align 8, !tbaa !51
  %38 = load ptr, ptr @stdout, align 8, !tbaa !53
  %39 = call i64 @quote_c_style(ptr noundef %37, ptr noundef null, ptr noundef %38, i32 noundef 0) #13
  %putchar = call i32 @putchar(i32 10)
  %indvars.iv.next = add nuw nsw i64 %indvars.iv, 1
  %40 = load i64, ptr %33, align 8, !tbaa !47
  %41 = icmp ugt i64 %40, %indvars.iv.next
  br i1 %41, label %.lr.ph20, label %._crit_edge21, !llvm.loop !55

._crit_edge21:                                    ; preds = %.lr.ph20, %._crit_edge
  call void @string_list_clear(ptr noundef nonnull %7, i32 noundef 0) #13
  call void @llvm.lifetime.end.p0(i64 40, ptr nonnull %7) #13
  call void @llvm.lifetime.end.p0(i64 24, ptr nonnull %6) #13
  br label %write_patterns_to_file.exit

42:                                               ; preds = %22
  %43 = load ptr, ptr @stdout, align 8, !tbaa !53
  %44 = load i32, ptr %5, align 8, !tbaa !56
  %45 = icmp sgt i32 %44, 0
  br i1 %45, label %.lr.ph.i, label %write_patterns_to_file.exit

.lr.ph.i:                                         ; preds = %42
  %46 = getelementptr inbounds nuw i8, ptr %5, i64 16
  br label %47

47:                                               ; preds = %60, %.lr.ph.i
  %indvars.iv.i = phi i64 [ 0, %.lr.ph.i ], [ %indvars.iv.next.i, %60 ]
  %48 = load ptr, ptr %46, align 8, !tbaa !57
  %49 = getelementptr inbounds nuw ptr, ptr %48, i64 %indvars.iv.i
  %50 = load ptr, ptr %49, align 8, !tbaa !58
  %51 = getelementptr inbounds nuw i8, ptr %50, i64 28
  %52 = load i32, ptr %51, align 4, !tbaa !37
  %53 = and i32 %52, 16
  %.not.i = icmp eq i32 %53, 0
  br i1 %.not.i, label %55, label %54

54:                                               ; preds = %47
  %fputc.i = call i32 @fputc(i32 33, ptr %43)
  br label %55

55:                                               ; preds = %54, %47
  %56 = getelementptr inbounds nuw i8, ptr %50, i64 36
  %fputs.i = call i32 @fputs(ptr nonnull %56, ptr %43)
  %57 = load i32, ptr %51, align 4, !tbaa !37
  %58 = and i32 %57, 8
  %.not11.i = icmp eq i32 %58, 0
  br i1 %.not11.i, label %60, label %59

59:                                               ; preds = %55
  %fputc12.i = call i32 @fputc(i32 47, ptr %43)
  br label %60

60:                                               ; preds = %59, %55
  %fputc13.i = call i32 @fputc(i32 10, ptr %43)
  %indvars.iv.next.i = add nuw nsw i64 %indvars.iv.i, 1
  %61 = load i32, ptr %5, align 8, !tbaa !56
  %62 = sext i32 %61 to i64
  %63 = icmp slt i64 %indvars.iv.next.i, %62
  br i1 %63, label %47, label %write_patterns_to_file.exit, !llvm.loop !60

write_patterns_to_file.exit:                      ; preds = %60, %42, %._crit_edge21
  call void @clear_pattern_list(ptr noundef nonnull %5) #13
  br label %64

64:                                               ; preds = %write_patterns_to_file.exit, %_.exit
  call void @llvm.lifetime.end.p0(i64 128, ptr nonnull %5) #13
  ret i32 0
}